target datalayout = "e-m:e-p270:32:32-p271:32:32-p272:64:64-i64:64-i128:128-f80:128-n8:16:32:64-S128"
target triple = "x86_64-pc-linux-gnu"

%"class.icu_77::CollationRootElements" = type <{ ptr, i32, [4 x i8] }>

; Function Attrs: mustprogress nounwind uwtable
define noundef i32 @_ZNK6icu_7721CollationRootElements5findPEj(ptr noundef nonnull align 8 dereferenceable(12) %0, i32 noundef %1) #2 align 2 {
  %3 = alloca ptr, align 8
  %4 = alloca i32, align 4
  %5 = alloca i32, align 4
  %6 = alloca i32, align 4
  %7 = alloca i32, align 4
  %8 = alloca i32, align 4
  %9 = alloca i32, align 4
  %10 = alloca i32, align 4
  store ptr %0, ptr %3, align 8, !tbaa !3
  store i32 %1, ptr %4, align 4, !tbaa !8
  %11 = load ptr, ptr %3, align 8
  call void @llvm.lifetime.start.p0(i64 4, ptr %5) #4
  %12 = getelementptr inbounds nuw %"class.icu_77::CollationRootElements", ptr %11, i32 0, i32 0
  %13 = load ptr, ptr %12, align 8, !tbaa !10
  %14 = getelementptr inbounds nuw i32, ptr %13, i64 2
  %15 = load i32, ptr %14, align 4, !tbaa !8
  store i32 %15, ptr %5, align 4, !tbaa !8
  call void @llvm.lifetime.start.p0(i64 4, ptr %6) #4
  %16 = getelementptr inbounds nuw %"class.icu_77::CollationRootElements", ptr %11, i32 0, i32 1
  %17 = load i32, ptr %16, align 8, !tbaa !16
  %18 = sub nsw i32 %17, 1
  store i32 %18, ptr %6, align 4, !tbaa !8
  br label %19

19:                                               ; preds = %110, %2
  %20 = load i32, ptr %5, align 4, !tbaa !8
  %21 = add nsw i32 %20, 1
  %22 = load i32, ptr %6, align 4, !tbaa !8
  %23 = icmp slt i32 %21, %22
  br i1 %23, label %24, label %111

24:                                               ; preds = %19
  call void @llvm.lifetime.start.p0(i64 4, ptr %7) #4
  %25 = load i32, ptr %5, align 4, !tbaa !8
  %26 = load i32, ptr %6, align 4, !tbaa !8
  %27 = add nsw i32 %25, %26
  %28 = sdiv i32 %27, 2
  store i32 %28, ptr %7, align 4, !tbaa !8
  call void @llvm.lifetime.start.p0(i64 4, ptr %8) #4
  %29 = getelementptr inbounds nuw %"class.icu_77::CollationRootElements", ptr %11, i32 0, i32 0
  %30 = load ptr, ptr %29, align 8, !tbaa !10
  %31 = load i32, ptr %7, align 4, !tbaa !8
  %32 = sext i32 %31 to i64
  %33 = getelementptr inbounds i32, ptr %30, i64 %32
  %34 = load i32, ptr %33, align 4, !tbaa !8
  store i32 %34, ptr %8, align 4, !tbaa !8
  %35 = load i32, ptr %8, align 4, !tbaa !8
  %36 = and i32 %35, 128
  %37 = icmp ne i32 %36, 0
  br i1 %37, label %38, label %98

38:                                               ; preds = %24
  call void @llvm.lifetime.start.p0(i64 4, ptr %9) #4
  %39 = load i32, ptr %7, align 4, !tbaa !8
  %40 = add nsw i32 %39, 1
  store i32 %40, ptr %9, align 4, !tbaa !8
  br label %41

41:                                               ; preds = %58, %38
  %42 = load i32, ptr %9, align 4, !tbaa !8
  %43 = load i32, ptr %6, align 4, !tbaa !8
  %44 = icmp eq i32 %42, %43
  br i1 %44, label %45, label %46

45:                                               ; preds = %41
  br label %61

46:                                               ; preds = %41
  %47 = getelementptr inbounds nuw %"class.icu_77::CollationRootElements", ptr %11, i32 0, i32 0
  %48 = load ptr, ptr %47, align 8, !tbaa !10
  %49 = load i32, ptr %9, align 4, !tbaa !8
  %50 = sext i32 %49 to i64
  %51 = getelementptr inbounds i32, ptr %48, i64 %50
  %52 = load i32, ptr %51, align 4, !tbaa !8
  store i32 %52, ptr %8, align 4, !tbaa !8
  %53 = load i32, ptr %8, align 4, !tbaa !8
  %54 = and i32 %53, 128
  %55 = icmp eq i32 %54, 0
  br i1 %55, label %56, label %58

56:                                               ; preds = %46
  %57 = load i32, ptr %9, align 4, !tbaa !8
  store i32 %57, ptr %7, align 4, !tbaa !8
  br label %61

58:                                               ; preds = %46
  %59 = load i32, ptr %9, align 4, !tbaa !8
  %60 = add nsw i32 %59, 1
  store i32 %60, ptr %9, align 4, !tbaa !8
  br label %41, !llvm.loop !17

61:                                               ; preds = %56, %45
  %62 = load i32, ptr %8, align 4, !tbaa !8
  %63 = and i32 %62, 128
  %64 = icmp ne i32 %63, 0
  br i1 %64, label %65, label %94

65:                                               ; preds = %61
  %66 = load i32, ptr %7, align 4, !tbaa !8
  %67 = sub nsw i32 %66, 1
  store i32 %67, ptr %9, align 4, !tbaa !8
  br label %68

68:                                               ; preds = %85, %65
  %69 = load i32, ptr %9, align 4, !tbaa !8
  %70 = load i32, ptr %5, align 4, !tbaa !8
  %71 = icmp eq i32 %69, %70
  br i1 %71, label %72, label %73

72:                                               ; preds = %68
  br label %88

73:                                               ; preds = %68
  %74 = getelementptr inbounds nuw %"class.icu_77::CollationRootElements", ptr %11, i32 0, i32 0
  %75 = load ptr, ptr %74, align 8, !tbaa !10
  %76 = load i32, ptr %9, align 4, !tbaa !8
  %77 = sext i32 %76 to i64
  %78 = getelementptr inbounds i32, ptr %75, i64 %77
  %79 = load i32, ptr %78, align 4, !tbaa !8
  store i32 %79, ptr %8, align 4, !tbaa !8
  %80 = load i32, ptr %8, align 4, !tbaa !8
  %81 = and i32 %80, 128
  %82 = icmp eq i32 %81, 0
  br i1 %82, label %83, label %85

83:                                               ; preds = %73
  %84 = load i32, ptr %9, align 4, !tbaa !8
  store i32 %84, ptr %7, align 4, !tbaa !8
  br label %88

85:                                               ; preds = %73
  %86 = load i32, ptr %9, align 4, !tbaa !8
  %87 = add nsw i32 %86, -1
  store i32 %87, ptr %9, align 4, !tbaa !8
  br label %68, !llvm.loop !18

88:                                               ; preds = %83, %72
  %89 = load i32, ptr %8, align 4, !tbaa !8
  %90 = and i32 %89, 128
  %91 = icmp ne i32 %90, 0
  br i1 %91, label %92, label %93

92:                                               ; preds = %88
  store i32 3, ptr %10, align 4
  br label %95

93:                                               ; preds = %88
  br label %94

94:                                               ; preds = %93, %61
  store i32 0, ptr %10, align 4
  br label %95

95:                                               ; preds = %94, %92
  call void @llvm.lifetime.end.p0(i64 4, ptr %9) #4
  %96 = load i32, ptr %10, align 4
  switch i32 %96, label %108 [
    i32 0, label %97
  ]

97:                                               ; preds = %95
  br label %98

98:                                               ; preds = %97, %24
  %99 = load i32, ptr %4, align 4, !tbaa !8
  %100 = load i32, ptr %8, align 4, !tbaa !8
  %101 = and i32 %100, -256
  %102 = icmp ult i32 %99, %101
  br i1 %102, label %103, label %105

103:                                              ; preds = %98
  %104 = load i32, ptr %7, align 4, !tbaa !8
  store i32 %104, ptr %6, align 4, !tbaa !8
  br label %107

105:                                              ; preds = %98
  %106 = load i32, ptr %7, align 4, !tbaa !8
  store i32 %106, ptr %5, align 4, !tbaa !8
  br label %107

107:                                              ; preds = %105, %103
  store i32 0, ptr %10, align 4
  br label %108

108:                                              ; preds = %107, %95
  call void @llvm.lifetime.end.p0(i64 4, ptr %8) #4
  call void @llvm.lifetime.end.p0(i64 4, ptr %7) #4
  %109 = load i32, ptr %10, align 4
  switch i32 %109, label %113 [
    i32 0, label %110
    i32 3, label %111
  ]

110:                                              ; preds = %108
  br label %19, !llvm.loop !19

111:                                              ; preds = %108, %19
  %112 = load i32, ptr %5, align 4, !tbaa !8
  store i32 1, ptr %10, align 4
  call void @llvm.lifetime.end.p0(i64 4, ptr %6) #4
  call void @llvm.lifetime.end.p0(i64 4, ptr %5) #4
  ret i32 %112

113:                                              ; preds = %108
  unreachable
}

; Function Attrs: mustprogress uwtable
define noundef i64 @_ZNK6icu_7721CollationRootElements25firstCEWithPrimaryAtLeastEj(ptr noundef nonnull align 8 dereferenceable(12) %0, i32 noundef %1) #0 align 2 {
  %3 = alloca i64, align 8
  %4 = alloca ptr, align 8
  %5 = alloca i32, align 4
  %6 = alloca i32, align 4
  store ptr %0, ptr %4, align 8, !tbaa !3
  store i32 %1, ptr %5, align 4, !tbaa !8
  %7 = load ptr, ptr %4, align 8
  %8 = load i32, ptr %5, align 4, !tbaa !8
  %9 = icmp eq i32 %8, 0
  br i1 %9, label %10, label %11

10:                                               ; preds = %2
  store i64 0, ptr %3, align 8
  br label %43

11:                                               ; preds = %2
  call void @llvm.lifetime.start.p0(i64 4, ptr %6) #4
  %12 = load i32, ptr %5, align 4, !tbaa !8
  %13 = call noundef i32 @_ZNK6icu_7721CollationRootElements5findPEj(ptr noundef nonnull align 8 dereferenceable(12) %7, i32 noundef %12)
  store i32 %13, ptr %6, align 4, !tbaa !8
  %14 = load i32, ptr %5, align 4, !tbaa !8
  %15 = getelementptr inbounds nuw %"class.icu_77::CollationRootElements", ptr %7, i32 0, i32 0
  %16 = load ptr, ptr %15, align 8, !tbaa !10
  %17 = load i32, ptr %6, align 4, !tbaa !8
  %18 = sext i32 %17 to i64
  %19 = getelementptr inbounds i32, ptr %16, i64 %18
  %20 = load i32, ptr %19, align 4, !tbaa !8
  %21 = and i32 %20, -256
  %22 = icmp ne i32 %14, %21
  br i1 %22, label %23, label %38

23:                                               ; preds = %11
  br label %24

24:                                               ; preds = %36, %23
  %25 = getelementptr inbounds nuw %"class.icu_77::CollationRootElements", ptr %7, i32 0, i32 0
  %26 = load ptr, ptr %25, align 8, !tbaa !10
  %27 = load i32, ptr %6, align 4, !tbaa !8
  %28 = add nsw i32 %27, 1
  store i32 %28, ptr %6, align 4, !tbaa !8
  %29 = sext i32 %28 to i64
  %30 = getelementptr inbounds i32, ptr %26, i64 %29
  %31 = load i32, ptr %30, align 4, !tbaa !8
  store i32 %31, ptr %5, align 4, !tbaa !8
  %32 = load i32, ptr %5, align 4, !tbaa !8
  %33 = and i32 %32, 128
  %34 = icmp eq i32 %33, 0
  br i1 %34, label %35, label %36

35:                                               ; preds = %24
  br label %37

36:                                               ; preds = %24
  br label %24, !llvm.loop !20

37:                                               ; preds = %35
  br label %38

38:                                               ; preds = %37, %11
  %39 = load i32, ptr %5, align 4, !tbaa !8
  %40 = zext i32 %39 to i64
  %41 = shl i64 %40, 32
  %42 = or i64 %41, 83887360
  store i64 %42, ptr %3, align 8
  call void @llvm.lifetime.end.p0(i64 4, ptr %6) #4
  br label %43

43:                                               ; preds = %38, %10
  %44 = load i64, ptr %3, align 8
  ret i64 %44
}